; Function Attrs: nounwind uwtable
define dso_local i32 @ExtendBufferedRel(ptr noundef readonly byval(%struct.BufferManagerRelation) align 8 captures(none) %0, i32 noundef %1, ptr noundef %2, i32 noundef %3) local_unnamed_addr #0 {
  %5 = alloca %struct.BufferManagerRelation, align 8
  %6 = alloca i32, align 4
  %7 = alloca i32, align 4
  call void @llvm.lifetime.start.p0(i64 4, ptr nonnull %6) #16
  call void @llvm.lifetime.start.p0(i64 4, ptr nonnull %7) #16
  call void @llvm.lifetime.start.p0(i64 24, ptr nonnull %5)
  call void @llvm.memcpy.p0.p0.i64(ptr noundef nonnull align 8 dereferenceable(24) %5, ptr noundef nonnull align 8 dereferenceable(24) %0, i64 24, i1 false)
  %8 = getelementptr inbounds nuw i8, ptr %5, i64 8
  %9 = load ptr, ptr %8, align 8
  %10 = icmp eq ptr %9, null
  br i1 %10, label %11, label %ExtendBufferedRelBy.exit

11:                                               ; preds = %4
  %12 = load ptr, ptr %5, align 8
  %13 = getelementptr inbounds nuw i8, ptr %12, i64 16
  %14 = load ptr, ptr %13, align 8
  %15 = icmp eq ptr %14, null
  br i1 %15, label %16, label %RelationGetSmgr.exit.i, !prof !7

16:                                               ; preds = %11
  %17 = getelementptr inbounds nuw i8, ptr %12, i64 28
  %18 = load i32, ptr %17, align 4
  %.sroa.0.0.copyload.i.i = load i64, ptr %12, align 8
  %.sroa.2.0..sroa_idx.i.i = getelementptr inbounds nuw i8, ptr %12, i64 8
  %.sroa.2.0.copyload.i.i = load i32, ptr %.sroa.2.0..sroa_idx.i.i, align 8
  %19 = tail call ptr @smgropen(i64 %.sroa.0.0.copyload.i.i, i32 %.sroa.2.0.copyload.i.i, i32 noundef %18) #16
  store ptr %19, ptr %13, align 8
  tail call void @smgrpin(ptr noundef %19) #16
  %.pre.i.i = load ptr, ptr %13, align 8
  br label %RelationGetSmgr.exit.i

RelationGetSmgr.exit.i:                           ; preds = %16, %11
  %20 = phi ptr [ %.pre.i.i, %16 ], [ %14, %11 ]
  store ptr %20, ptr %8, align 8
  %21 = getelementptr inbounds nuw i8, ptr %12, i64 56
  %22 = load ptr, ptr %21, align 8
  %23 = getelementptr inbounds nuw i8, ptr %22, i64 114
  %24 = load i8, ptr %23, align 2
  %25 = getelementptr inbounds nuw i8, ptr %5, i64 16
  store i8 %24, ptr %25, align 8
  br label %ExtendBufferedRelBy.exit

ExtendBufferedRelBy.exit:                         ; preds = %4, %RelationGetSmgr.exit.i
  %26 = call fastcc i32 @ExtendBufferedRelCommon(ptr noundef nonnull byval(%struct.BufferManagerRelation) align 8 %5, i32 noundef %1, ptr noundef %2, i32 noundef %3, i32 noundef 1, i32 noundef -1, ptr noundef nonnull %6, ptr noundef nonnull %7)
  call void @llvm.lifetime.end.p0(i64 24, ptr nonnull %5)
  %27 = load i32, ptr %6, align 4
  call void @llvm.lifetime.end.p0(i64 4, ptr nonnull %7) #16
  call void @llvm.lifetime.end.p0(i64 4, ptr nonnull %6) #16
  ret i32 %27
}